target datalayout = "e-m:e-p270:32:32-p271:32:32-p272:64:64-i64:64-i128:128-f80:128-n8:16:32:64-S128"
target triple = "x86_64-pc-linux-gnu"

%struct.dt_pthread_mutex_t = type { %union.pthread_mutex_t }
%union.pthread_mutex_t = type { %struct.__pthread_mutex_s }
%struct.__pthread_mutex_s = type { i32, i32, i32, i32, i32, i16, i16, %struct.__pthread_internal_list }
%struct.__pthread_internal_list = type { ptr, ptr }
%struct.dt_iop_module_t = type { i32, ptr, ptr, ptr, ptr, ptr, ptr, ptr, ptr, ptr, ptr, ptr, ptr, ptr, ptr, ptr, ptr, ptr, ptr, ptr, ptr, ptr, ptr, ptr, ptr, ptr, ptr, ptr, ptr, ptr, ptr, ptr, ptr, ptr, ptr, ptr, ptr, ptr, ptr, ptr, ptr, ptr, ptr, ptr, ptr, ptr, ptr, ptr, ptr, ptr, ptr, ptr, ptr, ptr, ptr, ptr, ptr, [20 x i8], i32, i32, i32, i32, i32, i32, i32, [8 x i8], [4 x float], [4 x float], [4 x float], [4 x float], [4 x float], [4 x float], ptr, %struct.dt_dev_histogram_stats_t, [4 x i32], i32, i32, ptr, i32, i32, ptr, ptr, i32, ptr, %struct.dt_pthread_mutex_t, ptr, ptr, ptr, ptr, %struct.anon, ptr, ptr, ptr, ptr, ptr, ptr, ptr, i32, ptr, ptr, ptr, ptr, ptr, ptr, ptr, i32, ptr, i32, [128 x i8], i32, ptr, ptr, i32, [12 x i8] }
%struct.dt_dev_histogram_stats_t = type { i32, i64, i32, i32 }
%struct.anon = type { %struct.anon.0, %struct.anon.1 }
%struct.anon.0 = type { ptr, ptr }
%struct.anon.1 = type { ptr, i32 }
%struct.dt_iop_gui_blend_data_t = type { i32, i32, i32, i32, i32, i32, i32, ptr, ptr, ptr, ptr, ptr, ptr, ptr, ptr, ptr, ptr, ptr, ptr, ptr, [2 x %struct.dt_iop_gui_blendif_filter_t], ptr, ptr, ptr, ptr, ptr, ptr, ptr, ptr, ptr, ptr, ptr, ptr, i32, i32, ptr, i32, [8 x [2 x i32]], i32, i32, ptr, i32, ptr, ptr, ptr, [5 x ptr], [5 x i32], ptr, ptr, ptr, i32, ptr, ptr, i32, %struct.dt_pthread_mutex_t }
%struct.dt_iop_gui_blendif_filter_t = type { ptr, ptr, [4 x ptr], ptr, ptr, ptr }

; Function Attrs: inlinehint nounwind uwtable
define internal i32 @dt_pthread_mutex_destroy(ptr noundef %0) #3 {
  %2 = alloca ptr, align 8
  %3 = alloca i32, align 4
  store ptr %0, ptr %2, align 8, !tbaa !138
  call void @llvm.lifetime.start.p0(i64 4, ptr %3) #11
  %4 = load ptr, ptr %2, align 8, !tbaa !138
  %5 = getelementptr inbounds nuw %struct.dt_pthread_mutex_t, ptr %4, i32 0, i32 0
  %6 = call i32 @pthread_mutex_destroy(ptr noundef %5) #11
  store i32 %6, ptr %3, align 4, !tbaa !80
  %7 = load i32, ptr %3, align 4, !tbaa !80
  call void @llvm.lifetime.end.p0(i64 4, ptr %3) #11
  ret i32 %7
}

; Function Attrs: inlinehint nounwind uwtable
define internal i32 @dt_pthread_mutex_unlock(ptr noundef %0) #3 {
  %2 = alloca ptr, align 8
  store ptr %0, ptr %2, align 8, !tbaa !138
  %3 = load ptr, ptr %2, align 8, !tbaa !138
  %4 = getelementptr inbounds nuw %struct.dt_pthread_mutex_t, ptr %3, i32 0, i32 0
  %5 = call i32 @pthread_mutex_unlock(ptr noundef %4) #11
  ret i32 %5
}

; Function Attrs: inlinehint nounwind uwtable
define internal i32 @dt_pthread_mutex_lock(ptr noundef %0) #3 {
  %2 = alloca ptr, align 8
  store ptr %0, ptr %2, align 8, !tbaa !138
  %3 = load ptr, ptr %2, align 8, !tbaa !138
  %4 = getelementptr inbounds nuw %struct.dt_pthread_mutex_t, ptr %3, i32 0, i32 0
  %5 = call i32 @pthread_mutex_lock(ptr noundef %4) #11
  ret i32 %5
}

; Function Attrs: nounwind uwtable
define void @dt_iop_gui_cleanup_blending(ptr noundef %0) #0 {
  %2 = alloca ptr, align 8
  %3 = alloca ptr, align 8
  store ptr %0, ptr %2, align 8, !tbaa !6
  %4 = load ptr, ptr %2, align 8, !tbaa !6
  %5 = getelementptr inbounds nuw %struct.dt_iop_module_t, ptr %4, i32 0, i32 88
  %6 = load ptr, ptr %5, align 8, !tbaa !15
  %7 = icmp ne ptr %6, null
  br i1 %7, label %9, label %8

8:                                                ; preds = %1
  br label %46

9:                                                ; preds = %1
  call void @llvm.lifetime.start.p0(i64 8, ptr %3) #11
  %10 = load ptr, ptr %2, align 8, !tbaa !6
  %11 = getelementptr inbounds nuw %struct.dt_iop_module_t, ptr %10, i32 0, i32 88
  %12 = load ptr, ptr %11, align 8, !tbaa !15
  store ptr %12, ptr %3, align 8, !tbaa !31
  %13 = load ptr, ptr %3, align 8, !tbaa !31
  %14 = getelementptr inbounds nuw %struct.dt_iop_gui_blend_data_t, ptr %13, i32 0, i32 54
  %15 = call i32 @dt_pthread_mutex_lock(ptr noundef %14)
  %16 = load ptr, ptr %3, align 8, !tbaa !31
  %17 = getelementptr inbounds nuw %struct.dt_iop_gui_blend_data_t, ptr %16, i32 0, i32 39
  %18 = load i32, ptr %17, align 8, !tbaa !157
  %19 = icmp ne i32 %18, 0
  br i1 %19, label %20, label %25

20:                                               ; preds = %9
  %21 = load ptr, ptr %3, align 8, !tbaa !31
  %22 = getelementptr inbounds nuw %struct.dt_iop_gui_blend_data_t, ptr %21, i32 0, i32 39
  %23 = load i32, ptr %22, align 8, !tbaa !157
  %24 = call i32 @g_source_remove(i32 noundef %23)
  br label %25

25:                                               ; preds = %20, %9
  %26 = load ptr, ptr %3, align 8, !tbaa !31
  %27 = getelementptr inbounds nuw %struct.dt_iop_gui_blend_data_t, ptr %26, i32 0, i32 8
  %28 = load ptr, ptr %27, align 8, !tbaa !241
  call void @g_list_free(ptr noundef %28)
  %29 = load ptr, ptr %3, align 8, !tbaa !31
  %30 = getelementptr inbounds nuw %struct.dt_iop_gui_blend_data_t, ptr %29, i32 0, i32 9
  %31 = load ptr, ptr %30, align 8, !tbaa !242
  call void @g_list_free(ptr noundef %31)
  %32 = load ptr, ptr %3, align 8, !tbaa !31
  %33 = getelementptr inbounds nuw %struct.dt_iop_gui_blend_data_t, ptr %32, i32 0, i32 49
  %34 = load ptr, ptr %33, align 8, !tbaa !209
  call void @free(ptr noundef %34) #11
  %35 = load ptr, ptr %3, align 8, !tbaa !31
  %36 = getelementptr inbounds nuw %struct.dt_iop_gui_blend_data_t, ptr %35, i32 0, i32 54
  %37 = call i32 @dt_pthread_mutex_unlock(ptr noundef %36)
  %38 = load ptr, ptr %3, align 8, !tbaa !31
  %39 = getelementptr inbounds nuw %struct.dt_iop_gui_blend_data_t, ptr %38, i32 0, i32 54
  %40 = call i32 @dt_pthread_mutex_destroy(ptr noundef %39)
  %41 = load ptr, ptr %2, align 8, !tbaa !6
  %42 = getelementptr inbounds nuw %struct.dt_iop_module_t, ptr %41, i32 0, i32 88
  %43 = load ptr, ptr %42, align 8, !tbaa !15
  call void @g_free(ptr noundef %43)
  %44 = load ptr, ptr %2, align 8, !tbaa !6
  %45 = getelementptr inbounds nuw %struct.dt_iop_module_t, ptr %44, i32 0, i32 88
  store ptr null, ptr %45, align 8, !tbaa !15
  call void @llvm.lifetime.end.p0(i64 8, ptr %3) #11
  br label %46

46:                                               ; preds = %25, %8
  ret void
}