; Function Attrs: nounwind uwtable
define void @dt_iop_gui_cleanup_blending(ptr noundef captures(none) %0) local_unnamed_addr #0 {
  %2 = getelementptr inbounds nuw i8, ptr %0, i64 776
  %3 = load ptr, ptr %2, align 8, !tbaa !6
  %.not = icmp eq ptr %3, null
  br i1 %.not, label %21, label %4

4:                                                ; preds = %1
  %5 = getelementptr inbounds nuw i8, ptr %3, i64 632
  %6 = tail call i32 @pthread_mutex_lock(ptr noundef nonnull %5) #18
  %7 = getelementptr inbounds nuw i8, ptr %3, i64 464
  %8 = load i32, ptr %7, align 8, !tbaa !143
  %.not13 = icmp eq i32 %8, 0
  br i1 %.not13, label %11, label %9

9:                                                ; preds = %4
  %10 = tail call i32 @g_source_remove(i32 noundef %8) #18
  br label %11

11:                                               ; preds = %9, %4
  %12 = getelementptr inbounds nuw i8, ptr %3, i64 40
  %13 = load ptr, ptr %12, align 8, !tbaa !209
  tail call void @g_list_free(ptr noundef %13) #18
  %14 = getelementptr inbounds nuw i8, ptr %3, i64 48
  %15 = load ptr, ptr %14, align 8, !tbaa !210
  tail call void @g_list_free(ptr noundef %15) #18
  %16 = getelementptr inbounds nuw i8, ptr %3, i64 592
  %17 = load ptr, ptr %16, align 8, !tbaa !181
  tail call void @free(ptr noundef %17) #18
  %18 = tail call i32 @pthread_mutex_unlock(ptr noundef nonnull %5) #18
  %19 = tail call i32 @pthread_mutex_destroy(ptr noundef nonnull %5) #18
  %20 = load ptr, ptr %2, align 8, !tbaa !6
  tail call void @g_free(ptr noundef %20) #18
  store ptr null, ptr %2, align 8, !tbaa !6
  br label %21

21:                                               ; preds = %1, %11
  ret void
}